; Function Attrs: mustprogress uwtable
define void @_ZN7rocksdb20PropertyBlockBuilder3AddERKSt3mapINSt7__cxx1112basic_stringIcSt11char_traitsIcESaIcEEES7_St4lessIS7_ESaISt4pairIKS7_S7_EEE(ptr noundef nonnull align 8 dereferenceable(56) %this, ptr noundef nonnull readonly align 8 dereferenceable(48) %user_collected_properties) local_unnamed_addr #3 align 2 {
entry:
  %_M_left.i.i = getelementptr inbounds i8, ptr %user_collected_properties, i64 24
  %0 = load ptr, ptr %_M_left.i.i, align 8
  %add.ptr.i.i = getelementptr inbounds i8, ptr %user_collected_properties, i64 8
  %cmp.i.not5 = icmp eq ptr %0, %add.ptr.i.i
  br i1 %cmp.i.not5, label %for.end, label %for.body

for.body:                                         ; preds = %entry, %for.body
  %__begin1.sroa.0.06 = phi ptr [ %call.i, %for.body ], [ %0, %entry ]
  %_M_storage.i.i = getelementptr inbounds i8, ptr %__begin1.sroa.0.06, i64 32
  %second = getelementptr inbounds i8, ptr %__begin1.sroa.0.06, i64 64
  tail call void @_ZN7rocksdb20PropertyBlockBuilder3AddERKNSt7__cxx1112basic_stringIcSt11char_traitsIcESaIcEEES8_(ptr noundef nonnull align 8 dereferenceable(56) %this, ptr noundef nonnull align 8 dereferenceable(32) %_M_storage.i.i, ptr noundef nonnull align 8 dereferenceable(32) %second)
  %call.i = tail call noundef ptr @_ZSt18_Rb_tree_incrementPKSt18_Rb_tree_node_base(ptr noundef %__begin1.sroa.0.06) #22
  %cmp.i.not = icmp eq ptr %call.i, %add.ptr.i.i
  br i1 %cmp.i.not, label %for.end, label %for.body

for.end:                                          ; preds = %for.body, %entry
  ret void
}